; Function Attrs: nofree norecurse nosync nounwind memory(argmem: readwrite) uwtable
define internal void @conv_AV_SAMPLE_FMT_U8_to_AV_SAMPLE_FMT_S64(ptr noundef writeonly captures(address) %0, ptr noundef readonly captures(none) %1, i32 noundef %2, i32 noundef %3, ptr noundef readnone captures(address) %4) #4 {
  %6 = mul nsw i32 %3, 3
  %7 = sext i32 %6 to i64
  %8 = sub nsw i64 0, %7
  %9 = getelementptr inbounds i8, ptr %4, i64 %8
  %10 = icmp ult ptr %0, %9
  br i1 %10, label %.lr.ph, label %.preheader

.lr.ph:                                           ; preds = %5
  %11 = sext i32 %2 to i64
  %12 = sext i32 %3 to i64
  br label %16

.preheader:                                       ; preds = %16, %5
  %.035.lcssa = phi ptr [ %1, %5 ], [ %39, %16 ]
  %.0.lcssa = phi ptr [ %0, %5 ], [ %40, %16 ]
  %13 = icmp ult ptr %.0.lcssa, %4
  br i1 %13, label %.lr.ph42, label %._crit_edge

.lr.ph42:                                         ; preds = %.preheader
  %14 = sext i32 %2 to i64
  %15 = sext i32 %3 to i64
  br label %42

16:                                               ; preds = %.lr.ph, %16
  %.038 = phi ptr [ %0, %.lr.ph ], [ %40, %16 ]
  %.03537 = phi ptr [ %1, %.lr.ph ], [ %39, %16 ]
  %17 = load i8, ptr %.03537, align 1, !tbaa !29
  %18 = xor i8 %17, -128
  %19 = zext i8 %18 to i64
  %20 = shl nuw i64 %19, 56
  store i64 %20, ptr %.038, align 8, !tbaa !46
  %21 = getelementptr inbounds i8, ptr %.03537, i64 %11
  %22 = getelementptr inbounds i8, ptr %.038, i64 %12
  %23 = load i8, ptr %21, align 1, !tbaa !29
  %24 = xor i8 %23, -128
  %25 = zext i8 %24 to i64
  %26 = shl nuw i64 %25, 56
  store i64 %26, ptr %22, align 8, !tbaa !46
  %27 = getelementptr inbounds i8, ptr %21, i64 %11
  %28 = getelementptr inbounds i8, ptr %22, i64 %12
  %29 = load i8, ptr %27, align 1, !tbaa !29
  %30 = xor i8 %29, -128
  %31 = zext i8 %30 to i64
  %32 = shl nuw i64 %31, 56
  store i64 %32, ptr %28, align 8, !tbaa !46
  %33 = getelementptr inbounds i8, ptr %27, i64 %11
  %34 = getelementptr inbounds i8, ptr %28, i64 %12
  %35 = load i8, ptr %33, align 1, !tbaa !29
  %36 = xor i8 %35, -128
  %37 = zext i8 %36 to i64
  %38 = shl nuw i64 %37, 56
  store i64 %38, ptr %34, align 8, !tbaa !46
  %39 = getelementptr inbounds i8, ptr %33, i64 %11
  %40 = getelementptr inbounds i8, ptr %34, i64 %12
  %41 = icmp ult ptr %40, %9
  br i1 %41, label %16, label %.preheader, !llvm.loop !48

42:                                               ; preds = %.lr.ph42, %42
  %.141 = phi ptr [ %.0.lcssa, %.lr.ph42 ], [ %48, %42 ]
  %.13640 = phi ptr [ %.035.lcssa, %.lr.ph42 ], [ %47, %42 ]
  %43 = load i8, ptr %.13640, align 1, !tbaa !29
  %44 = xor i8 %43, -128
  %45 = zext i8 %44 to i64
  %46 = shl nuw i64 %45, 56
  store i64 %46, ptr %.141, align 8, !tbaa !46
  %47 = getelementptr inbounds i8, ptr %.13640, i64 %14
  %48 = getelementptr inbounds i8, ptr %.141, i64 %15
  %49 = icmp ult ptr %48, %4
  br i1 %49, label %42, label %._crit_edge, !llvm.loop !49

._crit_edge:                                      ; preds = %42, %.preheader
  ret void
}